target datalayout = "e-m:e-p270:32:32-p271:32:32-p272:64:64-i64:64-i128:128-f80:128-n8:16:32:64-S128"
target triple = "x86_64-pc-linux-gnu"

%struct.AVTXContext = type { i32, i32, ptr, ptr, ptr, ptr, [4 x ptr], i32, [4 x ptr], ptr, i32, i64, i32, float, double, ptr }

; Function Attrs: nounwind uwtable
define i32 @ff_tx_gen_default_map(ptr noundef %0, ptr noundef %1) #0 {
  %3 = alloca i32, align 4
  %4 = alloca ptr, align 8
  %5 = alloca ptr, align 8
  %6 = alloca i32, align 4
  %7 = alloca i32, align 4
  store ptr %0, ptr %4, align 8, !tbaa !4
  store ptr %1, ptr %5, align 8, !tbaa !9
  %8 = load ptr, ptr %4, align 8, !tbaa !4
  %9 = getelementptr inbounds nuw %struct.AVTXContext, ptr %8, i32 0, i32 0
  %10 = load i32, ptr %9, align 8, !tbaa !13
  %11 = sext i32 %10 to i64
  %12 = mul i64 %11, 4
  %13 = call noalias ptr @av_malloc(i64 noundef %12)
  %14 = load ptr, ptr %4, align 8, !tbaa !4
  %15 = getelementptr inbounds nuw %struct.AVTXContext, ptr %14, i32 0, i32 2
  store ptr %13, ptr %15, align 8, !tbaa !20
  %16 = load ptr, ptr %4, align 8, !tbaa !4
  %17 = getelementptr inbounds nuw %struct.AVTXContext, ptr %16, i32 0, i32 2
  %18 = load ptr, ptr %17, align 8, !tbaa !20
  %19 = icmp ne ptr %18, null
  br i1 %19, label %21, label %20

20:                                               ; preds = %2
  store i32 -12, ptr %3, align 4
  br label %77

21:                                               ; preds = %2
  %22 = load ptr, ptr %4, align 8, !tbaa !4
  %23 = getelementptr inbounds nuw %struct.AVTXContext, ptr %22, i32 0, i32 2
  %24 = load ptr, ptr %23, align 8, !tbaa !20
  %25 = getelementptr inbounds i32, ptr %24, i64 0
  store i32 0, ptr %25, align 4, !tbaa !11
  %26 = load ptr, ptr %4, align 8, !tbaa !4
  %27 = getelementptr inbounds nuw %struct.AVTXContext, ptr %26, i32 0, i32 1
  %28 = load i32, ptr %27, align 4, !tbaa !21
  %29 = icmp ne i32 %28, 0
  br i1 %29, label %30, label %54

30:                                               ; preds = %21
  call void @llvm.lifetime.start.p0(i64 4, ptr %6) #11
  store i32 1, ptr %6, align 4, !tbaa !11
  br label %31

31:                                               ; preds = %50, %30
  %32 = load i32, ptr %6, align 4, !tbaa !11
  %33 = load ptr, ptr %4, align 8, !tbaa !4
  %34 = getelementptr inbounds nuw %struct.AVTXContext, ptr %33, i32 0, i32 0
  %35 = load i32, ptr %34, align 8, !tbaa !13
  %36 = icmp slt i32 %32, %35
  br i1 %36, label %38, label %37

37:                                               ; preds = %31
  call void @llvm.lifetime.end.p0(i64 4, ptr %6) #11
  br label %53

38:                                               ; preds = %31
  %39 = load ptr, ptr %4, align 8, !tbaa !4
  %40 = getelementptr inbounds nuw %struct.AVTXContext, ptr %39, i32 0, i32 0
  %41 = load i32, ptr %40, align 8, !tbaa !13
  %42 = load i32, ptr %6, align 4, !tbaa !11
  %43 = sub nsw i32 %41, %42
  %44 = load ptr, ptr %4, align 8, !tbaa !4
  %45 = getelementptr inbounds nuw %struct.AVTXContext, ptr %44, i32 0, i32 2
  %46 = load ptr, ptr %45, align 8, !tbaa !20
  %47 = load i32, ptr %6, align 4, !tbaa !11
  %48 = sext i32 %47 to i64
  %49 = getelementptr inbounds i32, ptr %46, i64 %48
  store i32 %43, ptr %49, align 4, !tbaa !11
  br label %50

50:                                               ; preds = %38
  %51 = load i32, ptr %6, align 4, !tbaa !11
  %52 = add nsw i32 %51, 1
  store i32 %52, ptr %6, align 4, !tbaa !11
  br label %31, !llvm.loop !91

53:                                               ; preds = %37
  br label %74

54:                                               ; preds = %21
  call void @llvm.lifetime.start.p0(i64 4, ptr %7) #11
  store i32 1, ptr %7, align 4, !tbaa !11
  br label %55

55:                                               ; preds = %70, %54
  %56 = load i32, ptr %7, align 4, !tbaa !11
  %57 = load ptr, ptr %4, align 8, !tbaa !4
  %58 = getelementptr inbounds nuw %struct.AVTXContext, ptr %57, i32 0, i32 0
  %59 = load i32, ptr %58, align 8, !tbaa !13
  %60 = icmp slt i32 %56, %59
  br i1 %60, label %62, label %61

61:                                               ; preds = %55
  call void @llvm.lifetime.end.p0(i64 4, ptr %7) #11
  br label %73

62:                                               ; preds = %55
  %63 = load i32, ptr %7, align 4, !tbaa !11
  %64 = load ptr, ptr %4, align 8, !tbaa !4
  %65 = getelementptr inbounds nuw %struct.AVTXContext, ptr %64, i32 0, i32 2
  %66 = load ptr, ptr %65, align 8, !tbaa !20
  %67 = load i32, ptr %7, align 4, !tbaa !11
  %68 = sext i32 %67 to i64
  %69 = getelementptr inbounds i32, ptr %66, i64 %68
  store i32 %63, ptr %69, align 4, !tbaa !11
  br label %70

70:                                               ; preds = %62
  %71 = load i32, ptr %7, align 4, !tbaa !11
  %72 = add nsw i32 %71, 1
  store i32 %72, ptr %7, align 4, !tbaa !11
  br label %55, !llvm.loop !92

73:                                               ; preds = %61
  br label %74

74:                                               ; preds = %73, %53
  %75 = load ptr, ptr %4, align 8, !tbaa !4
  %76 = getelementptr inbounds nuw %struct.AVTXContext, ptr %75, i32 0, i32 12
  store i32 1, ptr %76, align 8, !tbaa !31
  store i32 0, ptr %3, align 4
  br label %77

77:                                               ; preds = %74, %20
  %78 = load i32, ptr %3, align 4
  ret i32 %78
}