; Function Attrs: nounwind uwtable
define range(i32 -12, 1) i32 @ff_tx_gen_default_map(ptr noundef captures(none) initializes((8, 16)) %0, ptr noundef readnone captures(none) %1) local_unnamed_addr #0 {
  %3 = load i32, ptr %0, align 8, !tbaa !4
  %4 = sext i32 %3 to i64
  %5 = shl nsw i64 %4, 2
  %6 = tail call noalias ptr @av_malloc(i64 noundef %5) #13
  %7 = getelementptr inbounds nuw i8, ptr %0, i64 8
  store ptr %6, ptr %7, align 8, !tbaa !16
  %.not = icmp eq ptr %6, null
  br i1 %.not, label %19, label %8

8:                                                ; preds = %2
  store i32 0, ptr %6, align 4, !tbaa !20
  %9 = getelementptr inbounds nuw i8, ptr %0, i64 4
  %10 = load i32, ptr %9, align 4, !tbaa !17
  %.not23 = icmp eq i32 %10, 0
  %11 = load i32, ptr %0, align 8, !tbaa !4
  %12 = icmp sgt i32 %11, 1
  br i1 %.not23, label %.preheader, label %.preheader24

.preheader24:                                     ; preds = %8
  br i1 %12, label %.lr.ph.preheader, label %.loopexit

.lr.ph.preheader:                                 ; preds = %.preheader24
  %wide.trip.count = zext nneg i32 %11 to i64
  br label %.lr.ph

.preheader:                                       ; preds = %8
  br i1 %12, label %.lr.ph28.preheader, label %.loopexit

.lr.ph28.preheader:                               ; preds = %.preheader
  %wide.trip.count34 = zext nneg i32 %11 to i64
  br label %.lr.ph28

.lr.ph:                                           ; preds = %.lr.ph.preheader, %.lr.ph
  %indvars.iv = phi i64 [ 1, %.lr.ph.preheader ], [ %indvars.iv.next, %.lr.ph ]
  %13 = getelementptr inbounds nuw i32, ptr %6, i64 %indvars.iv
  %14 = trunc i64 %indvars.iv to i32
  %15 = sub i32 %11, %14
  store i32 %15, ptr %13, align 4, !tbaa !20
  %indvars.iv.next = add nuw nsw i64 %indvars.iv, 1
  %exitcond.not = icmp eq i64 %indvars.iv.next, %wide.trip.count
  br i1 %exitcond.not, label %.loopexit, label %.lr.ph, !llvm.loop !81

.lr.ph28:                                         ; preds = %.lr.ph28.preheader, %.lr.ph28
  %indvars.iv31 = phi i64 [ 1, %.lr.ph28.preheader ], [ %indvars.iv.next32, %.lr.ph28 ]
  %16 = getelementptr inbounds nuw i32, ptr %6, i64 %indvars.iv31
  %17 = trunc nuw nsw i64 %indvars.iv31 to i32
  store i32 %17, ptr %16, align 4, !tbaa !20
  %indvars.iv.next32 = add nuw nsw i64 %indvars.iv31, 1
  %exitcond35.not = icmp eq i64 %indvars.iv.next32, %wide.trip.count34
  br i1 %exitcond35.not, label %.loopexit, label %.lr.ph28, !llvm.loop !82

.loopexit:                                        ; preds = %.lr.ph, %.lr.ph28, %.preheader24, %.preheader
  %18 = getelementptr inbounds nuw i8, ptr %0, i64 136
  store i32 1, ptr %18, align 8, !tbaa !28
  br label %19

19:                                               ; preds = %2, %.loopexit
  %.020 = phi i32 [ 0, %.loopexit ], [ -12, %2 ]
  ret i32 %.020
}